; Function Attrs: mustprogress uwtable
define internal fastcc void @_ZN12_GLOBAL__N_111GliftWorker27add_imprecise_GLIFT_logic_6ERN5Yosys5RTLIL7SigSpecE(ptr %.64.val, ptr noundef nonnull align 8 dereferenceable(64) %0) unnamed_addr #4 align 2 personality ptr @__gxx_personality_v0 {
  %2 = alloca %"struct.Yosys::RTLIL::SigSpec", align 8
  %3 = alloca %"struct.Yosys::RTLIL::Const", align 8
  call void @_ZN5Yosys5RTLIL5ConstC1Eii(ptr noundef nonnull align 8 dereferenceable(32) %3, i32 noundef 1, i32 noundef 1)
  invoke void @_ZN5Yosys5RTLIL7SigSpecC1EONS0_5ConstE(ptr noundef nonnull align 8 dereferenceable(64) %2, ptr noundef nonnull align 8 dereferenceable(32) %3)
          to label %4 unwind label %22

4:                                                ; preds = %1
  invoke void @_ZN5Yosys5RTLIL6Module7connectERKNS0_7SigSpecES4_(ptr noundef nonnull align 8 dereferenceable(560) %.64.val, ptr noundef nonnull align 8 dereferenceable(64) %0, ptr noundef nonnull align 8 dereferenceable(64) %2)
          to label %5 unwind label %24

5:                                                ; preds = %4
  %6 = getelementptr inbounds i8, ptr %2, i64 40
  %7 = load ptr, ptr %6, align 8
  %.not.i.i.i.i = icmp eq ptr %7, null
  br i1 %.not.i.i.i.i, label %_ZNSt6vectorIN5Yosys5RTLIL6SigBitESaIS2_EED2Ev.exit.i, label %8

8:                                                ; preds = %5
  call void @_ZdlPv(ptr noundef nonnull %7) #23
  br label %_ZNSt6vectorIN5Yosys5RTLIL6SigBitESaIS2_EED2Ev.exit.i

_ZNSt6vectorIN5Yosys5RTLIL6SigBitESaIS2_EED2Ev.exit.i: ; preds = %8, %5
  %9 = getelementptr inbounds i8, ptr %2, i64 16
  %10 = load ptr, ptr %9, align 8
  %11 = getelementptr inbounds i8, ptr %2, i64 24
  %12 = load ptr, ptr %11, align 8
  %.not4.i.i.i.i.i = icmp eq ptr %10, %12
  br i1 %.not4.i.i.i.i.i, label %_ZSt8_DestroyIPN5Yosys5RTLIL8SigChunkES2_EvT_S4_RSaIT0_E.exit.i.i, label %.lr.ph.i.i.i.i.i

.lr.ph.i.i.i.i.i:                                 ; preds = %_ZNSt6vectorIN5Yosys5RTLIL6SigBitESaIS2_EED2Ev.exit.i, %_ZSt8_DestroyIN5Yosys5RTLIL8SigChunkEEvPT_.exit.i.i.i.i.i
  %.05.i.i.i.i.i = phi ptr [ %16, %_ZSt8_DestroyIN5Yosys5RTLIL8SigChunkEEvPT_.exit.i.i.i.i.i ], [ %10, %_ZNSt6vectorIN5Yosys5RTLIL6SigBitESaIS2_EED2Ev.exit.i ]
  %13 = getelementptr inbounds i8, ptr %.05.i.i.i.i.i, i64 8
  %14 = load ptr, ptr %13, align 8
  %.not.i.i.i.i.i.i.i.i.i.i = icmp eq ptr %14, null
  br i1 %.not.i.i.i.i.i.i.i.i.i.i, label %_ZSt8_DestroyIN5Yosys5RTLIL8SigChunkEEvPT_.exit.i.i.i.i.i, label %15

15:                                               ; preds = %.lr.ph.i.i.i.i.i
  call void @_ZdlPv(ptr noundef nonnull %14) #23
  br label %_ZSt8_DestroyIN5Yosys5RTLIL8SigChunkEEvPT_.exit.i.i.i.i.i

_ZSt8_DestroyIN5Yosys5RTLIL8SigChunkEEvPT_.exit.i.i.i.i.i: ; preds = %15, %.lr.ph.i.i.i.i.i
  %16 = getelementptr inbounds i8, ptr %.05.i.i.i.i.i, i64 40
  %.not.i.i.i.i.i = icmp eq ptr %16, %12
  br i1 %.not.i.i.i.i.i, label %_ZSt8_DestroyIPN5Yosys5RTLIL8SigChunkES2_EvT_S4_RSaIT0_E.exitthread-pre-split.i.i, label %.lr.ph.i.i.i.i.i, !llvm.loop !25

_ZSt8_DestroyIPN5Yosys5RTLIL8SigChunkES2_EvT_S4_RSaIT0_E.exitthread-pre-split.i.i: ; preds = %_ZSt8_DestroyIN5Yosys5RTLIL8SigChunkEEvPT_.exit.i.i.i.i.i
  %.pr.i.i = load ptr, ptr %9, align 8
  br label %_ZSt8_DestroyIPN5Yosys5RTLIL8SigChunkES2_EvT_S4_RSaIT0_E.exit.i.i

_ZSt8_DestroyIPN5Yosys5RTLIL8SigChunkES2_EvT_S4_RSaIT0_E.exit.i.i: ; preds = %_ZSt8_DestroyIPN5Yosys5RTLIL8SigChunkES2_EvT_S4_RSaIT0_E.exitthread-pre-split.i.i, %_ZNSt6vectorIN5Yosys5RTLIL6SigBitESaIS2_EED2Ev.exit.i
  %17 = phi ptr [ %.pr.i.i, %_ZSt8_DestroyIPN5Yosys5RTLIL8SigChunkES2_EvT_S4_RSaIT0_E.exitthread-pre-split.i.i ], [ %10, %_ZNSt6vectorIN5Yosys5RTLIL6SigBitESaIS2_EED2Ev.exit.i ]
  %.not.i.i.i1.i = icmp eq ptr %17, null
  br i1 %.not.i.i.i1.i, label %_ZN5Yosys5RTLIL7SigSpecD2Ev.exit, label %18

18:                                               ; preds = %_ZSt8_DestroyIPN5Yosys5RTLIL8SigChunkES2_EvT_S4_RSaIT0_E.exit.i.i
  call void @_ZdlPv(ptr noundef nonnull %17) #23
  br label %_ZN5Yosys5RTLIL7SigSpecD2Ev.exit

_ZN5Yosys5RTLIL7SigSpecD2Ev.exit:                 ; preds = %_ZSt8_DestroyIPN5Yosys5RTLIL8SigChunkES2_EvT_S4_RSaIT0_E.exit.i.i, %18
  %19 = getelementptr inbounds i8, ptr %3, i64 8
  %20 = load ptr, ptr %19, align 8
  %.not.i.i.i.i5 = icmp eq ptr %20, null
  br i1 %.not.i.i.i.i5, label %_ZN5Yosys5RTLIL5ConstD2Ev.exit, label %21

21:                                               ; preds = %_ZN5Yosys5RTLIL7SigSpecD2Ev.exit
  call void @_ZdlPv(ptr noundef nonnull %20) #23
  br label %_ZN5Yosys5RTLIL5ConstD2Ev.exit

_ZN5Yosys5RTLIL5ConstD2Ev.exit:                   ; preds = %_ZN5Yosys5RTLIL7SigSpecD2Ev.exit, %21
  ret void

22:                                               ; preds = %1
  %23 = landingpad { ptr, i32 }
          cleanup
  br label %26

24:                                               ; preds = %4
  %25 = landingpad { ptr, i32 }
          cleanup
  call void @_ZN5Yosys5RTLIL7SigSpecD2Ev(ptr noundef nonnull align 8 dereferenceable(64) %2) #22
  br label %26

26:                                               ; preds = %24, %22
  %.pn = phi { ptr, i32 } [ %25, %24 ], [ %23, %22 ]
  %27 = getelementptr inbounds i8, ptr %3, i64 8
  %28 = load ptr, ptr %27, align 8
  %.not.i.i.i.i6 = icmp eq ptr %28, null
  br i1 %.not.i.i.i.i6, label %_ZN5Yosys5RTLIL5ConstD2Ev.exit7, label %29

29:                                               ; preds = %26
  call void @_ZdlPv(ptr noundef nonnull %28) #23
  br label %_ZN5Yosys5RTLIL5ConstD2Ev.exit7

_ZN5Yosys5RTLIL5ConstD2Ev.exit7:                  ; preds = %26, %29
  resume { ptr, i32 } %.pn
}